target datalayout = "e-m:e-p270:32:32-p271:32:32-p272:64:64-i64:64-i128:128-f80:128-n8:16:32:64-S128"
target triple = "x86_64-pc-linux-gnu"

@opt_verbosity = internal global i32 6, align 4
@bio_err = external global ptr, align 8
@.str.351 = private unnamed_addr constant [22 x i8] c"../openssl/apps/cmp.c\00", align 1
@.str.352 = private unnamed_addr constant [6 x i8] c"error\00", align 1
@.str.353 = private unnamed_addr constant [1 x i8] zeroinitializer, align 1
@.str.630 = private unnamed_addr constant [89 x i8] c"%s:%s:%d:CMP %s: Failed to delete %s, which should be done to indicate there is no %s%s\0A\00", align 1
@__func__.delete_file = private unnamed_addr constant [12 x i8] c"delete_file\00", align 1
@.str.661 = private unnamed_addr constant [15 x i8] c"%s certificate\00", align 1

; Function Attrs: inlinehint nounwind uwtable
define internal ptr @ossl_check_X509_sk_type(ptr noundef %0) #5 {
  %2 = alloca ptr, align 8
  store ptr %0, ptr %2, align 8, !tbaa !30
  %3 = load ptr, ptr %2, align 8, !tbaa !30
  ret ptr %3
}

; Function Attrs: nounwind uwtable
define internal i32 @delete_file(ptr noundef %0, ptr noundef %1) #0 {
  %3 = alloca i32, align 4
  %4 = alloca ptr, align 8
  %5 = alloca ptr, align 8
  store ptr %0, ptr %4, align 8, !tbaa !11
  store ptr %1, ptr %5, align 8, !tbaa !11
  %6 = load ptr, ptr %4, align 8, !tbaa !11
  %7 = icmp eq ptr %6, null
  br i1 %7, label %8, label %9

8:                                                ; preds = %2
  store i32 1, ptr %3, align 4
  br label %28

9:                                                ; preds = %2
  %10 = load ptr, ptr %4, align 8, !tbaa !11
  %11 = call i32 @unlink(ptr noundef %10) #11
  %12 = icmp ne i32 %11, 0
  br i1 %12, label %13, label %27

13:                                               ; preds = %9
  %14 = call ptr @__errno_location() #13
  %15 = load i32, ptr %14, align 4, !tbaa !4
  %16 = icmp ne i32 %15, 2
  br i1 %16, label %17, label %27

17:                                               ; preds = %13
  %18 = load i32, ptr @opt_verbosity, align 4, !tbaa !4
  %19 = icmp sgt i32 3, %18
  br i1 %19, label %20, label %21

20:                                               ; preds = %17
  br label %26

21:                                               ; preds = %17
  %22 = load ptr, ptr @bio_err, align 8, !tbaa !21
  %23 = load ptr, ptr %4, align 8, !tbaa !11
  %24 = load ptr, ptr %5, align 8, !tbaa !11
  %25 = call i32 (ptr, ptr, ...) @BIO_printf(ptr noundef %22, ptr noundef @.str.630, ptr noundef @__func__.delete_file, ptr noundef @.str.351, i32 noundef 2463, ptr noundef @.str.352, ptr noundef %23, ptr noundef %24, ptr noundef @.str.353)
  br label %26

26:                                               ; preds = %21, %20
  store i32 0, ptr %3, align 4
  br label %28

27:                                               ; preds = %13, %9
  store i32 1, ptr %3, align 4
  br label %28

28:                                               ; preds = %27, %26, %8
  %29 = load i32, ptr %3, align 4
  ret i32 %29
}

; Function Attrs: nounwind uwtable
define internal i32 @save_cert_or_delete(ptr noundef %0, ptr noundef %1, ptr noundef %2) #0 {
  %4 = alloca i32, align 4
  %5 = alloca ptr, align 8
  %6 = alloca ptr, align 8
  %7 = alloca ptr, align 8
  %8 = alloca [80 x i8], align 16
  %9 = alloca ptr, align 8
  %10 = alloca i32, align 4
  store ptr %0, ptr %5, align 8, !tbaa !13
  store ptr %1, ptr %6, align 8, !tbaa !11
  store ptr %2, ptr %7, align 8, !tbaa !11
  %11 = load ptr, ptr %6, align 8, !tbaa !11
  %12 = icmp eq ptr %11, null
  br i1 %12, label %13, label %14

13:                                               ; preds = %3
  store i32 1, ptr %4, align 4
  br label %41

14:                                               ; preds = %3
  %15 = load ptr, ptr %5, align 8, !tbaa !13
  %16 = icmp eq ptr %15, null
  br i1 %16, label %17, label %24

17:                                               ; preds = %14
  call void @llvm.lifetime.start.p0(i64 80, ptr %8) #11
  %18 = getelementptr inbounds [80 x i8], ptr %8, i64 0, i64 0
  %19 = load ptr, ptr %7, align 8, !tbaa !11
  %20 = call i32 (ptr, i64, ptr, ...) @BIO_snprintf(ptr noundef %18, i64 noundef 80, ptr noundef @.str.661, ptr noundef %19)
  %21 = load ptr, ptr %6, align 8, !tbaa !11
  %22 = getelementptr inbounds [80 x i8], ptr %8, i64 0, i64 0
  %23 = call i32 @delete_file(ptr noundef %21, ptr noundef %22)
  store i32 %23, ptr %4, align 4
  call void @llvm.lifetime.end.p0(i64 80, ptr %8) #11
  br label %41

24:                                               ; preds = %14
  call void @llvm.lifetime.start.p0(i64 8, ptr %9) #11
  %25 = call ptr @OPENSSL_sk_new_null()
  store ptr %25, ptr %9, align 8, !tbaa !30
  %26 = load ptr, ptr %9, align 8, !tbaa !30
  %27 = load ptr, ptr %5, align 8, !tbaa !13
  %28 = call i32 @X509_add_cert(ptr noundef %26, ptr noundef %27, i32 noundef 1)
  %29 = icmp ne i32 %28, 0
  br i1 %29, label %33, label %30

30:                                               ; preds = %24
  %31 = load ptr, ptr %9, align 8, !tbaa !30
  %32 = call ptr @ossl_check_X509_sk_type(ptr noundef %31)
  call void @OPENSSL_sk_free(ptr noundef %32)
  store i32 0, ptr %4, align 4
  store i32 1, ptr %10, align 4
  br label %40

33:                                               ; preds = %24
  %34 = load ptr, ptr %9, align 8, !tbaa !30
  %35 = load ptr, ptr %6, align 8, !tbaa !11
  %36 = load ptr, ptr %7, align 8, !tbaa !11
  %37 = call i32 @save_free_certs(ptr noundef %34, ptr noundef %35, ptr noundef %36)
  %38 = icmp sge i32 %37, 0
  %39 = zext i1 %38 to i32
  store i32 %39, ptr %4, align 4
  store i32 1, ptr %10, align 4
  br label %40

40:                                               ; preds = %33, %30
  call void @llvm.lifetime.end.p0(i64 8, ptr %9) #11
  br label %41

41:                                               ; preds = %40, %17, %13
  %42 = load i32, ptr %4, align 4
  ret i32 %42
}