; Function Attrs: nounwind uwtable
define internal fastcc range(i32 0, 2) i32 @save_cert_or_delete(ptr noundef %0, ptr noundef %1, ptr noundef %2) unnamed_addr #0 {
  %4 = alloca [80 x i8], align 16
  %5 = icmp eq ptr %1, null
  br i1 %5, label %28, label %6

6:                                                ; preds = %3
  %7 = icmp eq ptr %0, null
  br i1 %7, label %8, label %20

8:                                                ; preds = %6
  call void @llvm.lifetime.start.p0(i64 80, ptr nonnull %4) #12
  %9 = call i32 (ptr, i64, ptr, ...) @BIO_snprintf(ptr noundef nonnull %4, i64 noundef 80, ptr noundef nonnull @.str.661, ptr noundef %2) #12
  %10 = call i32 @unlink(ptr noundef nonnull %1) #12
  %.not.i = icmp eq i32 %10, 0
  br i1 %.not.i, label %delete_file.exit, label %11

11:                                               ; preds = %8
  %12 = tail call ptr @__errno_location() #15
  %13 = load i32, ptr %12, align 4, !tbaa !10
  %.not5.i = icmp eq i32 %13, 2
  br i1 %.not5.i, label %delete_file.exit, label %14

14:                                               ; preds = %11
  %15 = load i32, ptr @opt_verbosity, align 4, !tbaa !10
  %16 = icmp slt i32 %15, 3
  br i1 %16, label %delete_file.exit, label %17

17:                                               ; preds = %14
  %18 = load ptr, ptr @bio_err, align 8, !tbaa !12
  %19 = call i32 (ptr, ptr, ...) @BIO_printf(ptr noundef %18, ptr noundef nonnull @.str.630, ptr noundef nonnull @__func__.delete_file, ptr noundef nonnull @.str.351, i32 noundef 2463, ptr noundef nonnull @.str.352, ptr noundef nonnull %1, ptr noundef nonnull %4, ptr noundef nonnull @.str.353) #12
  br label %delete_file.exit

delete_file.exit:                                 ; preds = %8, %11, %14, %17
  %.0.i = phi i32 [ 0, %14 ], [ 0, %17 ], [ 1, %11 ], [ 1, %8 ]
  call void @llvm.lifetime.end.p0(i64 80, ptr nonnull %4) #12
  br label %28

20:                                               ; preds = %6
  %21 = tail call ptr @OPENSSL_sk_new_null() #12
  %22 = tail call i32 @X509_add_cert(ptr noundef %21, ptr noundef nonnull %0, i32 noundef 1) #12
  %.not = icmp eq i32 %22, 0
  br i1 %.not, label %23, label %24

23:                                               ; preds = %20
  tail call void @OPENSSL_sk_free(ptr noundef %21) #12
  br label %28

24:                                               ; preds = %20
  %25 = tail call fastcc i32 @save_free_certs(ptr noundef %21, ptr noundef nonnull %1, ptr noundef %2)
  %26 = icmp sgt i32 %25, -1
  %27 = zext i1 %26 to i32
  br label %28

28:                                               ; preds = %23, %24, %3, %delete_file.exit
  %.0 = phi i32 [ %.0.i, %delete_file.exit ], [ 1, %3 ], [ %27, %24 ], [ 0, %23 ]
  ret i32 %.0
}